(lp1
ccopy_reg
_reconstructor
p2
(cletter_classes
Letter
p3
c__builtin__
object
p4
NtRp5
(dp6
S'Letter'
p7
S'tmp\\gensim_txt\\testfile0.txt'
p8
sS'pages'
p9
(dp10
S'1'
(lp11
(S'12'
p12
S'Human machine interface for lab abc computer applications'
tp13
assS'file'
p14
g8
sS'id'
p15
S'0_testfile0.txt'
p16
sbag2
(g3
g4
NtRp17
(dp18
g7
S'tmp\\gensim_txt\\testfile1.txt'
p19
sg9
(dp20
S'1'
(lp21
(g12
S'A survey of user opinion of computer system response time'
tp22
assg14
g19
sg15
S'1_testfile1.txt'
p23
sbag2
(g3
g4
NtRp24
(dp25
g7
S'tmp\\gensim_txt\\testfile2.txt'
p26
sg9
(dp27
S'1'
(lp28
(g12
S'The EPS user interface management system'
tp29
assg14
g26
sg15
S'2_testfile2.txt'
p30
sbag2
(g3
g4
NtRp31
(dp32
g7
S'tmp\\gensim_txt\\testfile3.txt'
p33
sg9
(dp34
S'1'
(lp35
(g12
S'System and human system engineering testing of EPS'
tp36
assg14
g33
sg15
S'3_testfile3.txt'
p37
sbag2
(g3
g4
NtRp38
(dp39
g7
S'tmp\\gensim_txt\\testfile4.txt'
p40
sg9
(dp41
S'1'
(lp42
(g12
S'Relation of user perceived response time to error measurement'
tp43
assg14
g40
sg15
S'4_testfile4.txt'
p44
sbag2
(g3
g4
NtRp45
(dp46
g7
S'tmp\\gensim_txt\\testfile5.txt'
p47
sg9
(dp48
S'1'
(lp49
(g12
S'The generation of random binary unordered trees'
tp50
assg14
g47
sg15
S'5_testfile5.txt'
p51
sbag2
(g3
g4
NtRp52
(dp53
g7
S'tmp\\gensim_txt\\testfile6.txt'
p54
sg9
(dp55
S'1'
(lp56
(g12
S'The intersection graph of paths in trees'
tp57
assg14
g54
sg15
S'6_testfile6.txt'
p58
sbag2
(g3
g4
NtRp59
(dp60
g7
S'tmp\\gensim_txt\\testfile7.txt'
p61
sg9
(dp62
S'1'
(lp63
(g12
S'Graph minors IV Widths of trees and well quasi ordering'
tp64
assg14
g61
sg15
S'7_testfile7.txt'
p65
sbag2
(g3
g4
NtRp66
(dp67
g7
S'tmp\\gensim_txt\\testfile8.txt'
p68
sg9
(dp69
S'1'
(lp70
(g12
S'Graph minors A survey'
tp71
assg14
g68
sg15
S'8_testfile8.txt'
p72
sba.