(lp1
(lp2
(I0
I1
tp3
a(I1
I1
tp4
a(I2
I1
tp5
a(I3
I1
tp6
a(I4
I1
tp7
a(I5
I1
tp8
a(I6
I1
tp9
aa(lp10
(I2
I1
tp11
a(I7
I1
tp12
a(I8
I1
tp13
a(I9
I1
tp14
a(I10
I1
tp15
a(I11
I1
tp16
a(I12
I1
tp17
aa(lp18
(I4
I1
tp19
a(I10
I1
tp20
a(I12
I1
tp21
a(I13
I1
tp22
a(I14
I1
tp23
aa(lp24
(I3
I1
tp25
a(I10
I2
tp26
a(I13
I1
tp27
a(I15
I1
tp28
a(I16
I1
tp29
aa(lp30
(I8
I1
tp31
a(I11
I1
tp32
a(I12
I1
tp33
a(I17
I1
tp34
a(I18
I1
tp35
a(I19
I1
tp36
a(I20
I1
tp37
aa(lp38
(I21
I1
tp39
a(I22
I1
tp40
a(I23
I1
tp41
a(I24
I1
tp42
a(I25
I1
tp43
aa(lp44
(I24
I1
tp45
a(I26
I1
tp46
a(I27
I1
tp47
a(I28
I1
tp48
aa(lp49
(I24
I1
tp50
a(I26
I1
tp51
a(I29
I1
tp52
a(I30
I1
tp53
a(I31
I1
tp54
a(I32
I1
tp55
a(I33
I1
tp56
a(I34
I1
tp57
aa(lp58
(I9
I1
tp59
a(I26
I1
tp60
a(I30
I1
tp61
aa.